; Function Attrs: mustprogress nounwind uwtable
define void @_ZN3net12HpackEncoderD2Ev(ptr noundef nonnull align 8 dereferenceable(346) %0) unnamed_addr #3 align 2 personality ptr @__gxx_personality_v0 {
  %2 = getelementptr inbounds nuw i8, ptr %0, i64 328
  %3 = load ptr, ptr %2, align 8, !tbaa !47
  %.not.i = icmp eq ptr %3, null
  br i1 %.not.i, label %_ZNSt14_Function_baseD2Ev.exit, label %4

4:                                                ; preds = %1
  %5 = getelementptr inbounds nuw i8, ptr %0, i64 312
  %6 = invoke noundef zeroext i1 %3(ptr noundef nonnull align 8 dereferenceable(32) %5, ptr noundef nonnull align 8 dereferenceable(32) %5, i32 noundef 3)
          to label %_ZNSt14_Function_baseD2Ev.exit unwind label %7

7:                                                ; preds = %4
  %8 = landingpad { ptr, i32 }
          catch ptr null
  %9 = extractvalue { ptr, i32 } %8, 0
  tail call void @__clang_call_terminate(ptr %9) #16
  unreachable

_ZNSt14_Function_baseD2Ev.exit:                   ; preds = %1, %4
  %10 = getelementptr inbounds nuw i8, ptr %0, i64 256
  tail call void @_ZN3net17HpackOutputStreamD1Ev(ptr noundef nonnull align 8 dereferenceable(40) %10) #15
  tail call void @_ZN3net16HpackHeaderTableD1Ev(ptr noundef nonnull align 8 dereferenceable(256) %0) #15
  ret void
}